target datalayout = "e-m:e-p270:32:32-p271:32:32-p272:64:64-i64:64-i128:128-f80:128-n8:16:32:64-S128"
target triple = "x86_64-pc-linux-gnu"

%struct.Gia_Man_t_ = type { ptr, ptr, i32, i32, i32, i32, ptr, ptr, i32, i32, i32, ptr, ptr, %struct.Vec_Int_t_, %struct.Vec_Int_t_, i32, i32, i32, %struct.Vec_Int_t_, ptr, ptr, ptr, i32, i32, i32, i32, ptr, ptr, ptr, ptr, ptr, i32, i32, ptr, i32, ptr, ptr, ptr, ptr, ptr, ptr, ptr, ptr, ptr, ptr, ptr, ptr, ptr, ptr, ptr, ptr, ptr, ptr, %struct.Vec_Int_t_, %struct.Vec_Int_t_, ptr, ptr, ptr, ptr, ptr, ptr, ptr, ptr, ptr, ptr, ptr, ptr, ptr, ptr, ptr, ptr, ptr, ptr, ptr, ptr, ptr, i32, float, float, ptr, ptr, i32, ptr, ptr, ptr, ptr, ptr, ptr, ptr, ptr, ptr, ptr, ptr, ptr, ptr, ptr, ptr, i64, i64, ptr, ptr, i32, i32, i32, i32, i32, i32, i32, i32, i32, i32, i32, i32, ptr, ptr, ptr, ptr, ptr, ptr, ptr, ptr, i32, i32, i32, ptr, i32, i32, ptr, ptr, ptr, ptr, ptr, ptr, i32, i32, ptr, %struct.Vec_Int_t_, %struct.Vec_Int_t_, %struct.Vec_Int_t_, ptr, ptr, ptr, i32, i32, i32, i32, ptr, ptr, ptr, ptr, ptr }
%struct.Vec_Int_t_ = type { i32, i32, ptr }
%struct.Vec_Wrd_t_ = type { i32, i32, ptr }
%struct.Gia_Obj_t_ = type <{ i64, i32 }>

; Function Attrs: inlinehint nounwind uwtable
define internal ptr @Gia_ManObj(ptr noundef %0, i32 noundef %1) #2 {
  %3 = alloca ptr, align 8
  %4 = alloca i32, align 4
  store ptr %0, ptr %3, align 8, !tbaa !3
  store i32 %1, ptr %4, align 4, !tbaa !8
  %5 = load ptr, ptr %3, align 8, !tbaa !3
  %6 = getelementptr inbounds nuw %struct.Gia_Man_t_, ptr %5, i32 0, i32 6
  %7 = load ptr, ptr %6, align 8, !tbaa !36
  %8 = load i32, ptr %4, align 4, !tbaa !8
  %9 = sext i32 %8 to i64
  %10 = getelementptr inbounds %struct.Gia_Obj_t_, ptr %7, i64 %9
  ret ptr %10
}

; Function Attrs: inlinehint nounwind uwtable
define internal i32 @Vec_IntEntry(ptr noundef %0, i32 noundef %1) #2 {
  %3 = alloca ptr, align 8
  %4 = alloca i32, align 4
  store ptr %0, ptr %3, align 8, !tbaa !33
  store i32 %1, ptr %4, align 4, !tbaa !8
  %5 = load ptr, ptr %3, align 8, !tbaa !33
  %6 = getelementptr inbounds nuw %struct.Vec_Int_t_, ptr %5, i32 0, i32 2
  %7 = load ptr, ptr %6, align 8, !tbaa !58
  %8 = load i32, ptr %4, align 4, !tbaa !8
  %9 = sext i32 %8 to i64
  %10 = getelementptr inbounds i32, ptr %7, i64 %9
  %11 = load i32, ptr %10, align 4, !tbaa !8
  ret i32 %11
}

; Function Attrs: inlinehint nounwind uwtable
define internal ptr @Vec_WrdEntryP(ptr noundef %0, i32 noundef %1) #2 {
  %3 = alloca ptr, align 8
  %4 = alloca i32, align 4
  store ptr %0, ptr %3, align 8, !tbaa !10
  store i32 %1, ptr %4, align 4, !tbaa !8
  %5 = load ptr, ptr %3, align 8, !tbaa !10
  %6 = getelementptr inbounds nuw %struct.Vec_Wrd_t_, ptr %5, i32 0, i32 2
  %7 = load ptr, ptr %6, align 8, !tbaa !37
  %8 = load i32, ptr %4, align 4, !tbaa !8
  %9 = sext i32 %8 to i64
  %10 = getelementptr inbounds i64, ptr %7, i64 %9
  ret ptr %10
}

; Function Attrs: inlinehint nounwind uwtable
define internal i32 @Gia_ObjId(ptr noundef %0, ptr noundef %1) #2 {
  %3 = alloca ptr, align 8
  %4 = alloca ptr, align 8
  store ptr %0, ptr %3, align 8, !tbaa !3
  store ptr %1, ptr %4, align 8, !tbaa !35
  %5 = load ptr, ptr %4, align 8, !tbaa !35
  %6 = load ptr, ptr %3, align 8, !tbaa !3
  %7 = getelementptr inbounds nuw %struct.Gia_Man_t_, ptr %6, i32 0, i32 6
  %8 = load ptr, ptr %7, align 8, !tbaa !36
  %9 = ptrtoint ptr %5 to i64
  %10 = ptrtoint ptr %8 to i64
  %11 = sub i64 %9, %10
  %12 = sdiv exact i64 %11, 12
  %13 = trunc i64 %12 to i32
  ret i32 %13
}

; Function Attrs: inlinehint nounwind uwtable
define internal ptr @Gia_ManCi(ptr noundef %0, i32 noundef %1) #2 {
  %3 = alloca ptr, align 8
  %4 = alloca i32, align 4
  store ptr %0, ptr %3, align 8, !tbaa !3
  store i32 %1, ptr %4, align 4, !tbaa !8
  %5 = load ptr, ptr %3, align 8, !tbaa !3
  %6 = load ptr, ptr %3, align 8, !tbaa !3
  %7 = getelementptr inbounds nuw %struct.Gia_Man_t_, ptr %6, i32 0, i32 11
  %8 = load ptr, ptr %7, align 8, !tbaa !12
  %9 = load i32, ptr %4, align 4, !tbaa !8
  %10 = call i32 @Vec_IntEntry(ptr noundef %8, i32 noundef %9)
  %11 = call ptr @Gia_ManObj(ptr noundef %5, i32 noundef %10)
  ret ptr %11
}

; Function Attrs: inlinehint nounwind uwtable
define internal i32 @Vec_IntSize(ptr noundef %0) #2 {
  %2 = alloca ptr, align 8
  store ptr %0, ptr %2, align 8, !tbaa !33
  %3 = load ptr, ptr %2, align 8, !tbaa !33
  %4 = getelementptr inbounds nuw %struct.Vec_Int_t_, ptr %3, i32 0, i32 1
  %5 = load i32, ptr %4, align 4, !tbaa !34
  ret i32 %5
}

; Function Attrs: nounwind uwtable
define void @Gia_ManSimRelAssignInputs(ptr noundef %0, i32 noundef %1, ptr noundef %2, i32 noundef %3, ptr noundef %4) #0 {
  %6 = alloca ptr, align 8
  %7 = alloca i32, align 4
  %8 = alloca ptr, align 8
  %9 = alloca i32, align 4
  %10 = alloca ptr, align 8
  %11 = alloca i32, align 4
  %12 = alloca i32, align 4
  %13 = alloca i32, align 4
  %14 = alloca i32, align 4
  store ptr %0, ptr %6, align 8, !tbaa !3
  store i32 %1, ptr %7, align 4, !tbaa !8
  store ptr %2, ptr %8, align 8, !tbaa !10
  store i32 %3, ptr %9, align 4, !tbaa !8
  store ptr %4, ptr %10, align 8, !tbaa !10
  call void @llvm.lifetime.start.p0(i64 4, ptr %11) #13
  call void @llvm.lifetime.start.p0(i64 4, ptr %12) #13
  call void @llvm.lifetime.start.p0(i64 4, ptr %13) #13
  call void @llvm.lifetime.start.p0(i64 4, ptr %14) #13
  %15 = load i32, ptr %7, align 4, !tbaa !8
  %16 = load i32, ptr %9, align 4, !tbaa !8
  %17 = sdiv i32 %15, %16
  store i32 %17, ptr %14, align 4, !tbaa !8
  store i32 0, ptr %11, align 4, !tbaa !8
  br label %18

18:                                               ; preds = %61, %5
  %19 = load i32, ptr %11, align 4, !tbaa !8
  %20 = load ptr, ptr %6, align 8, !tbaa !3
  %21 = getelementptr inbounds nuw %struct.Gia_Man_t_, ptr %20, i32 0, i32 11
  %22 = load ptr, ptr %21, align 8, !tbaa !12
  %23 = call i32 @Vec_IntSize(ptr noundef %22)
  %24 = icmp slt i32 %19, %23
  br i1 %24, label %25, label %32

25:                                               ; preds = %18
  %26 = load ptr, ptr %6, align 8, !tbaa !3
  %27 = load ptr, ptr %6, align 8, !tbaa !3
  %28 = load i32, ptr %11, align 4, !tbaa !8
  %29 = call ptr @Gia_ManCi(ptr noundef %27, i32 noundef %28)
  %30 = call i32 @Gia_ObjId(ptr noundef %26, ptr noundef %29)
  store i32 %30, ptr %13, align 4, !tbaa !8
  %31 = icmp ne i32 %30, 0
  br label %32

32:                                               ; preds = %25, %18
  %33 = phi i1 [ false, %18 ], [ %31, %25 ]
  br i1 %33, label %34, label %64

34:                                               ; preds = %32
  store i32 0, ptr %12, align 4, !tbaa !8
  br label %35

35:                                               ; preds = %57, %34
  %36 = load i32, ptr %12, align 4, !tbaa !8
  %37 = load i32, ptr %14, align 4, !tbaa !8
  %38 = icmp slt i32 %36, %37
  br i1 %38, label %39, label %60

39:                                               ; preds = %35
  %40 = load ptr, ptr %8, align 8, !tbaa !10
  %41 = load i32, ptr %13, align 4, !tbaa !8
  %42 = load i32, ptr %7, align 4, !tbaa !8
  %43 = mul nsw i32 %41, %42
  %44 = load i32, ptr %9, align 4, !tbaa !8
  %45 = load i32, ptr %12, align 4, !tbaa !8
  %46 = mul nsw i32 %44, %45
  %47 = add nsw i32 %43, %46
  %48 = call ptr @Vec_WrdEntryP(ptr noundef %40, i32 noundef %47)
  %49 = load ptr, ptr %10, align 8, !tbaa !10
  %50 = load i32, ptr %11, align 4, !tbaa !8
  %51 = load i32, ptr %9, align 4, !tbaa !8
  %52 = mul nsw i32 %50, %51
  %53 = call ptr @Vec_WrdEntryP(ptr noundef %49, i32 noundef %52)
  %54 = load i32, ptr %9, align 4, !tbaa !8
  %55 = sext i32 %54 to i64
  %56 = mul i64 8, %55
  call void @llvm.memcpy.p0.p0.i64(ptr align 8 %48, ptr align 8 %53, i64 %56, i1 false)
  br label %57

57:                                               ; preds = %39
  %58 = load i32, ptr %12, align 4, !tbaa !8
  %59 = add nsw i32 %58, 1
  store i32 %59, ptr %12, align 4, !tbaa !8
  br label %35, !llvm.loop !197

60:                                               ; preds = %35
  br label %61

61:                                               ; preds = %60
  %62 = load i32, ptr %11, align 4, !tbaa !8
  %63 = add nsw i32 %62, 1
  store i32 %63, ptr %11, align 4, !tbaa !8
  br label %18, !llvm.loop !198

64:                                               ; preds = %32
  call void @llvm.lifetime.end.p0(i64 4, ptr %14) #13
  call void @llvm.lifetime.end.p0(i64 4, ptr %13) #13
  call void @llvm.lifetime.end.p0(i64 4, ptr %12) #13
  call void @llvm.lifetime.end.p0(i64 4, ptr %11) #13
  ret void
}