; Function Attrs: nofree norecurse nosync nounwind memory(readwrite, inaccessiblemem: none) uwtable
define void @Gia_ManSimRelAssignInputs(ptr noundef readonly captures(none) %0, i32 noundef %1, ptr noundef readonly captures(none) %2, i32 noundef %3, ptr noundef readonly captures(none) %4) local_unnamed_addr #0 {
  %6 = sdiv i32 %1, %3
  %7 = getelementptr inbounds nuw i8, ptr %0, i64 64
  %8 = load ptr, ptr %7, align 8, !tbaa !3
  %9 = getelementptr i8, ptr %8, i64 4
  %.val27 = load i32, ptr %9, align 4, !tbaa !28
  %10 = icmp sgt i32 %.val27, 0
  br i1 %10, label %.lr.ph30, label %.critedge

.lr.ph30:                                         ; preds = %5
  %11 = icmp sgt i32 %6, 0
  %12 = getelementptr i8, ptr %2, i64 8
  %13 = getelementptr i8, ptr %4, i64 8
  %14 = sext i32 %3 to i64
  %15 = shl nsw i64 %14, 3
  br i1 %11, label %.lr.ph30.split.us.preheader, label %.critedge

.lr.ph30.split.us.preheader:                      ; preds = %.lr.ph30
  %wide.trip.count = zext nneg i32 %6 to i64
  br label %.lr.ph30.split.us

.lr.ph30.split.us:                                ; preds = %.lr.ph30.split.us.preheader, %._crit_edge.us
  %indvars.iv35 = phi i64 [ 0, %.lr.ph30.split.us.preheader ], [ %indvars.iv.next36, %._crit_edge.us ]
  %16 = phi ptr [ %8, %.lr.ph30.split.us.preheader ], [ %28, %._crit_edge.us ]
  %17 = getelementptr i8, ptr %16, i64 8
  %.val22.val.us = load ptr, ptr %17, align 8, !tbaa !29
  %18 = getelementptr inbounds nuw i32, ptr %.val22.val.us, i64 %indvars.iv35
  %19 = load i32, ptr %18, align 4, !tbaa !30
  %.not.us = icmp eq i32 %19, 0
  br i1 %.not.us, label %.critedge, label %.preheader.us

20:                                               ; preds = %.preheader.us, %20
  %indvars.iv = phi i64 [ 0, %.preheader.us ], [ %indvars.iv.next, %20 ]
  %21 = mul nsw i64 %indvars.iv, %14
  %.val25.us = load ptr, ptr %12, align 8, !tbaa !31
  %22 = getelementptr i64, ptr %.val25.us, i64 %21
  %23 = getelementptr i64, ptr %22, i64 %27
  %.val24.us = load ptr, ptr %13, align 8, !tbaa !31
  %24 = getelementptr inbounds i64, ptr %.val24.us, i64 %26
  tail call void @llvm.memcpy.p0.p0.i64(ptr align 8 %23, ptr align 8 %24, i64 %15, i1 false)
  %indvars.iv.next = add nuw nsw i64 %indvars.iv, 1
  %exitcond.not = icmp eq i64 %indvars.iv.next, %wide.trip.count
  br i1 %exitcond.not, label %._crit_edge.us, label %20, !llvm.loop !192

.preheader.us:                                    ; preds = %.lr.ph30.split.us
  %25 = mul nsw i32 %19, %1
  %26 = mul nsw i64 %indvars.iv35, %14
  %27 = sext i32 %25 to i64
  br label %20

._crit_edge.us:                                   ; preds = %20
  %indvars.iv.next36 = add nuw nsw i64 %indvars.iv35, 1
  %28 = load ptr, ptr %7, align 8, !tbaa !3
  %29 = getelementptr i8, ptr %28, i64 4
  %.val.us = load i32, ptr %29, align 4, !tbaa !28
  %30 = sext i32 %.val.us to i64
  %31 = icmp slt i64 %indvars.iv.next36, %30
  br i1 %31, label %.lr.ph30.split.us, label %.critedge, !llvm.loop !193

.critedge:                                        ; preds = %.lr.ph30.split.us, %._crit_edge.us, %.lr.ph30, %5
  ret void
}